target datalayout = "e-m:e-p270:32:32-p271:32:32-p272:64:64-i64:64-i128:128-f80:128-n8:16:32:64-S128"
target triple = "x86_64-pc-linux-gnu"

%"class.std::__cxx11::basic_string" = type { %"struct.std::__cxx11::basic_string<char>::_Alloc_hider", i64, %union.anon }
%"struct.std::__cxx11::basic_string<char>::_Alloc_hider" = type { ptr }
%union.anon = type { i64, [8 x i8] }
%"class.std::allocator" = type { i8 }
%"class.cv::Size_" = type { i32, i32 }
%"class.cv::Mat" = type { i32, i32, i32, i32, ptr, ptr, ptr, ptr, ptr, ptr, %"struct.cv::MatSize", %"struct.cv::MatStep" }
%"struct.cv::MatSize" = type { ptr }
%"struct.cv::MatStep" = type { ptr, [2 x i64] }

@.str.1 = private unnamed_addr constant [117 x i8] c"generated/home/dtcxzyw/WorkSpace/Projects/compilers/llvm-opt-benchmark/bench/opencv/opencv/modules/core/src/copy.cpp\00", align 1
@.str.4 = private unnamed_addr constant [6 x i8] c"cvtFn\00", align 1
@__func__._ZN2cv22convertAndUnrollScalarERKNS_3MatEiPhm = private unnamed_addr constant [23 x i8] c"convertAndUnrollScalar\00", align 1
@.str.5 = private unnamed_addr constant [9 x i8] c"scn == 1\00", align 1

; Function Attrs: mustprogress nounwind uwtable
define linkonce_odr hidden void @_ZN2cv5Size_IiEC2Eii(ptr noundef nonnull align 4 dereferenceable(8) %0, i32 noundef %1, i32 noundef %2) unnamed_addr #4 comdat align 2 {
  %4 = alloca ptr, align 8
  %5 = alloca i32, align 4
  %6 = alloca i32, align 4
  store ptr %0, ptr %4, align 8
  store i32 %1, ptr %5, align 4
  store i32 %2, ptr %6, align 4
  %7 = load ptr, ptr %4, align 8
  %8 = getelementptr inbounds %"class.cv::Size_", ptr %7, i32 0, i32 0
  %9 = load i32, ptr %5, align 4
  store i32 %9, ptr %8, align 4
  %10 = getelementptr inbounds %"class.cv::Size_", ptr %7, i32 0, i32 1
  %11 = load i32, ptr %6, align 4
  store i32 %11, ptr %10, align 4
  ret void
}

; Function Attrs: mustprogress nounwind uwtable
define linkonce_odr noundef nonnull align 4 dereferenceable(4) ptr @_ZSt3minIiERKT_S2_S2_(ptr noundef nonnull align 4 dereferenceable(4) %0, ptr noundef nonnull align 4 dereferenceable(4) %1) #4 comdat {
  %3 = alloca ptr, align 8
  %4 = alloca ptr, align 8
  %5 = alloca ptr, align 8
  store ptr %0, ptr %4, align 8
  store ptr %1, ptr %5, align 8
  %6 = load ptr, ptr %5, align 8
  %7 = load i32, ptr %6, align 4
  %8 = load ptr, ptr %4, align 8
  %9 = load i32, ptr %8, align 4
  %10 = icmp slt i32 %7, %9
  br i1 %10, label %11, label %13

11:                                               ; preds = %2
  %12 = load ptr, ptr %5, align 8
  store ptr %12, ptr %3, align 8
  br label %15

13:                                               ; preds = %2
  %14 = load ptr, ptr %4, align 8
  store ptr %14, ptr %3, align 8
  br label %15

15:                                               ; preds = %13, %11
  %16 = load ptr, ptr %3, align 8
  ret ptr %16
}

; Function Attrs: mustprogress nounwind uwtable
define linkonce_odr hidden noundef ptr @_ZNK2cv3Mat3ptrEi(ptr noundef nonnull align 8 dereferenceable(96) %0, i32 noundef %1) #4 comdat align 2 {
  %3 = alloca ptr, align 8
  %4 = alloca i32, align 4
  store ptr %0, ptr %3, align 8
  store i32 %1, ptr %4, align 4
  %5 = load ptr, ptr %3, align 8
  %6 = getelementptr inbounds %"class.cv::Mat", ptr %5, i32 0, i32 4
  %7 = load ptr, ptr %6, align 8
  %8 = getelementptr inbounds %"class.cv::Mat", ptr %5, i32 0, i32 11
  %9 = getelementptr inbounds %"struct.cv::MatStep", ptr %8, i32 0, i32 0
  %10 = load ptr, ptr %9, align 8
  %11 = getelementptr inbounds i64, ptr %10, i64 0
  %12 = load i64, ptr %11, align 8
  %13 = load i32, ptr %4, align 4
  %14 = sext i32 %13 to i64
  %15 = mul i64 %12, %14
  %16 = getelementptr inbounds i8, ptr %7, i64 %15
  ret ptr %16
}

; Function Attrs: mustprogress nounwind uwtable
define linkonce_odr hidden noundef i32 @_ZNK2cv3Mat5depthEv(ptr noundef nonnull align 8 dereferenceable(96) %0) #4 comdat align 2 {
  %2 = alloca ptr, align 8
  store ptr %0, ptr %2, align 8
  %3 = load ptr, ptr %2, align 8
  %4 = getelementptr inbounds %"class.cv::Mat", ptr %3, i32 0, i32 0
  %5 = load i32, ptr %4, align 8
  %6 = and i32 %5, 7
  ret i32 %6
}

; Function Attrs: mustprogress uwtable
define hidden void @_ZN2cv22convertAndUnrollScalarERKNS_3MatEiPhm(ptr noundef nonnull align 8 dereferenceable(96) %0, i32 noundef %1, ptr noundef %2, i64 noundef %3) #0 personality ptr @__gxx_personality_v0 {
  %5 = alloca ptr, align 8
  %6 = alloca i32, align 4
  %7 = alloca ptr, align 8
  %8 = alloca i64, align 8
  %9 = alloca i32, align 4
  %10 = alloca i32, align 4
  %11 = alloca i64, align 8
  %12 = alloca ptr, align 8
  %13 = alloca %"class.std::__cxx11::basic_string", align 8
  %14 = alloca %"class.std::allocator", align 1
  %15 = alloca ptr, align 8
  %16 = alloca i32, align 4
  %17 = alloca %"class.cv::Size_", align 4
  %18 = alloca %"class.std::__cxx11::basic_string", align 8
  %19 = alloca %"class.std::allocator", align 1
  %20 = alloca i64, align 8
  %21 = alloca i64, align 8
  %22 = alloca i64, align 8
  store ptr %0, ptr %5, align 8
  store i32 %1, ptr %6, align 4
  store ptr %2, ptr %7, align 8
  store i64 %3, ptr %8, align 8
  %23 = load ptr, ptr %5, align 8
  %24 = call noundef i64 @_ZNK2cv3Mat5totalEv(ptr noundef nonnull align 8 dereferenceable(96) %23)
  %25 = trunc i64 %24 to i32
  store i32 %25, ptr %9, align 4
  %26 = load i32, ptr %6, align 4
  %27 = and i32 %26, 4088
  %28 = ashr i32 %27, 3
  %29 = add nsw i32 %28, 1
  store i32 %29, ptr %10, align 4
  %30 = load i32, ptr %6, align 4
  %31 = and i32 %30, 4088
  %32 = ashr i32 %31, 3
  %33 = add nsw i32 %32, 1
  %34 = load i32, ptr %6, align 4
  %35 = and i32 %34, 7
  %36 = mul nsw i32 %35, 4
  %37 = ashr i32 675553809, %36
  %38 = and i32 %37, 15
  %39 = mul nsw i32 %33, %38
  %40 = sext i32 %39 to i64
  store i64 %40, ptr %11, align 8
  %41 = load ptr, ptr %5, align 8
  %42 = call noundef i32 @_ZNK2cv3Mat5depthEv(ptr noundef nonnull align 8 dereferenceable(96) %41)
  %43 = load i32, ptr %6, align 4
  %44 = call noundef ptr @_ZN2cv14getConvertFuncEii(i32 noundef %42, i32 noundef %43)
  store ptr %44, ptr %12, align 8
  br label %45

45:                                               ; preds = %4
  %46 = load ptr, ptr %12, align 8
  %47 = icmp ne ptr %46, null
  br i1 %47, label %48, label %49

48:                                               ; preds = %45
  br label %61

49:                                               ; preds = %45
  call void @_ZNSaIcEC1Ev(ptr noundef nonnull align 1 dereferenceable(1) %14) #13
  invoke void @_ZNSt7__cxx1112basic_stringIcSt11char_traitsIcESaIcEEC1EPKcRKS3_(ptr noundef nonnull align 8 dereferenceable(32) %13, ptr noundef @.str.4, ptr noundef nonnull align 1 dereferenceable(1) %14)
          to label %50 unwind label %52

50:                                               ; preds = %49
  invoke void @_ZN2cv5errorEiRKNSt7__cxx1112basic_stringIcSt11char_traitsIcESaIcEEEPKcS9_i(i32 noundef -215, ptr noundef nonnull align 8 dereferenceable(32) %13, ptr noundef @__func__._ZN2cv22convertAndUnrollScalarERKNS_3MatEiPhm, ptr noundef @.str.1, i32 noundef 108) #14
          to label %51 unwind label %56

51:                                               ; preds = %50
  unreachable

52:                                               ; preds = %49
  %53 = landingpad { ptr, i32 }
          cleanup
  %54 = extractvalue { ptr, i32 } %53, 0
  store ptr %54, ptr %15, align 8
  %55 = extractvalue { ptr, i32 } %53, 1
  store i32 %55, ptr %16, align 4
  br label %60

56:                                               ; preds = %50
  %57 = landingpad { ptr, i32 }
          cleanup
  %58 = extractvalue { ptr, i32 } %57, 0
  store ptr %58, ptr %15, align 8
  %59 = extractvalue { ptr, i32 } %57, 1
  store i32 %59, ptr %16, align 4
  call void @_ZNSt7__cxx1112basic_stringIcSt11char_traitsIcESaIcEED1Ev(ptr noundef nonnull align 8 dereferenceable(32) %13) #13
  br label %60

60:                                               ; preds = %56, %52
  call void @_ZNSaIcED1Ev(ptr noundef nonnull align 1 dereferenceable(1) %14) #13
  br label %139

61:                                               ; preds = %48
  br label %62

62:                                               ; preds = %61
  %63 = load ptr, ptr %12, align 8
  %64 = load ptr, ptr %5, align 8
  %65 = call noundef ptr @_ZNK2cv3Mat3ptrEi(ptr noundef nonnull align 8 dereferenceable(96) %64, i32 noundef 0)
  %66 = load ptr, ptr %7, align 8
  %67 = call noundef nonnull align 4 dereferenceable(4) ptr @_ZSt3minIiERKT_S2_S2_(ptr noundef nonnull align 4 dereferenceable(4) %10, ptr noundef nonnull align 4 dereferenceable(4) %9)
  %68 = load i32, ptr %67, align 4
  call void @_ZN2cv5Size_IiEC2Eii(ptr noundef nonnull align 4 dereferenceable(8) %17, i32 noundef %68, i32 noundef 1)
  %69 = load i64, ptr %17, align 4
  call void %63(ptr noundef %65, i64 noundef 1, ptr noundef null, i64 noundef 1, ptr noundef %66, i64 noundef 1, i64 %69, ptr noundef null)
  %70 = load i32, ptr %9, align 4
  %71 = load i32, ptr %10, align 4
  %72 = icmp slt i32 %70, %71
  br i1 %72, label %73, label %117

73:                                               ; preds = %62
  br label %74

74:                                               ; preds = %73
  %75 = load i32, ptr %9, align 4
  %76 = icmp eq i32 %75, 1
  br i1 %76, label %77, label %78

77:                                               ; preds = %74
  br label %90

78:                                               ; preds = %74
  call void @_ZNSaIcEC1Ev(ptr noundef nonnull align 1 dereferenceable(1) %19) #13
  invoke void @_ZNSt7__cxx1112basic_stringIcSt11char_traitsIcESaIcEEC1EPKcRKS3_(ptr noundef nonnull align 8 dereferenceable(32) %18, ptr noundef @.str.5, ptr noundef nonnull align 1 dereferenceable(1) %19)
          to label %79 unwind label %81

79:                                               ; preds = %78
  invoke void @_ZN2cv5errorEiRKNSt7__cxx1112basic_stringIcSt11char_traitsIcESaIcEEEPKcS9_i(i32 noundef -215, ptr noundef nonnull align 8 dereferenceable(32) %18, ptr noundef @__func__._ZN2cv22convertAndUnrollScalarERKNS_3MatEiPhm, ptr noundef @.str.1, i32 noundef 113) #14
          to label %80 unwind label %85

80:                                               ; preds = %79
  unreachable

81:                                               ; preds = %78
  %82 = landingpad { ptr, i32 }
          cleanup
  %83 = extractvalue { ptr, i32 } %82, 0
  store ptr %83, ptr %15, align 8
  %84 = extractvalue { ptr, i32 } %82, 1
  store i32 %84, ptr %16, align 4
  br label %89

85:                                               ; preds = %79
  %86 = landingpad { ptr, i32 }
          cleanup
  %87 = extractvalue { ptr, i32 } %86, 0
  store ptr %87, ptr %15, align 8
  %88 = extractvalue { ptr, i32 } %86, 1
  store i32 %88, ptr %16, align 4
  call void @_ZNSt7__cxx1112basic_stringIcSt11char_traitsIcESaIcEED1Ev(ptr noundef nonnull align 8 dereferenceable(32) %18) #13
  br label %89

89:                                               ; preds = %85, %81
  call void @_ZNSaIcED1Ev(ptr noundef nonnull align 1 dereferenceable(1) %19) #13
  br label %139

90:                                               ; preds = %77
  br label %91

91:                                               ; preds = %90
  %92 = load i32, ptr %6, align 4
  %93 = and i32 %92, 7
  %94 = mul nsw i32 %93, 4
  %95 = ashr i32 675553809, %94
  %96 = and i32 %95, 15
  %97 = sext i32 %96 to i64
  store i64 %97, ptr %20, align 8
  %98 = load i64, ptr %20, align 8
  store i64 %98, ptr %21, align 8
  br label %99

99:                                               ; preds = %113, %91
  %100 = load i64, ptr %21, align 8
  %101 = load i64, ptr %11, align 8
  %102 = icmp ult i64 %100, %101
  br i1 %102, label %103, label %116

103:                                              ; preds = %99
  %104 = load ptr, ptr %7, align 8
  %105 = load i64, ptr %21, align 8
  %106 = load i64, ptr %20, align 8
  %107 = sub i64 %105, %106
  %108 = getelementptr inbounds i8, ptr %104, i64 %107
  %109 = load i8, ptr %108, align 1
  %110 = load ptr, ptr %7, align 8
  %111 = load i64, ptr %21, align 8
  %112 = getelementptr inbounds i8, ptr %110, i64 %111
  store i8 %109, ptr %112, align 1
  br label %113

113:                                              ; preds = %103
  %114 = load i64, ptr %21, align 8
  %115 = add i64 %114, 1
  store i64 %115, ptr %21, align 8
  br label %99, !llvm.loop !21

116:                                              ; preds = %99
  br label %117

117:                                              ; preds = %116, %62
  %118 = load i64, ptr %11, align 8
  store i64 %118, ptr %22, align 8
  br label %119

119:                                              ; preds = %135, %117
  %120 = load i64, ptr %22, align 8
  %121 = load i64, ptr %8, align 8
  %122 = load i64, ptr %11, align 8
  %123 = mul i64 %121, %122
  %124 = icmp ult i64 %120, %123
  br i1 %124, label %125, label %138

125:                                              ; preds = %119
  %126 = load ptr, ptr %7, align 8
  %127 = load i64, ptr %22, align 8
  %128 = load i64, ptr %11, align 8
  %129 = sub i64 %127, %128
  %130 = getelementptr inbounds i8, ptr %126, i64 %129
  %131 = load i8, ptr %130, align 1
  %132 = load ptr, ptr %7, align 8
  %133 = load i64, ptr %22, align 8
  %134 = getelementptr inbounds i8, ptr %132, i64 %133
  store i8 %131, ptr %134, align 1
  br label %135

135:                                              ; preds = %125
  %136 = load i64, ptr %22, align 8
  %137 = add i64 %136, 1
  store i64 %137, ptr %22, align 8
  br label %119, !llvm.loop !22

138:                                              ; preds = %119
  ret void

139:                                              ; preds = %89, %60
  %140 = load ptr, ptr %15, align 8
  %141 = load i32, ptr %16, align 4
  %142 = insertvalue { ptr, i32 } poison, ptr %140, 0
  %143 = insertvalue { ptr, i32 } %142, i32 %141, 1
  resume { ptr, i32 } %143
}