; Function Attrs: mustprogress uwtable
define hidden void @_ZN2cv22convertAndUnrollScalarERKNS_3MatEiPhm(ptr noundef nonnull align 8 dereferenceable(96) %0, i32 noundef %1, ptr noundef %2, i64 noundef %3) local_unnamed_addr #5 personality ptr @__gxx_personality_v0 {
  %5 = alloca %"class.std::__cxx11::basic_string", align 8
  %6 = alloca %"class.std::allocator", align 1
  %7 = alloca %"class.std::__cxx11::basic_string", align 8
  %8 = alloca %"class.std::allocator", align 1
  %9 = tail call noundef i64 @_ZNK2cv3Mat5totalEv(ptr noundef nonnull align 8 dereferenceable(96) %0)
  %10 = trunc i64 %9 to i32
  %11 = lshr i32 %1, 3
  %12 = and i32 %11, 511
  %13 = add nuw nsw i32 %12, 1
  %14 = shl i32 %1, 2
  %15 = and i32 %14, 28
  %16 = lshr i32 675553809, %15
  %17 = and i32 %16, 15
  %18 = mul nuw nsw i32 %17, %13
  %19 = zext nneg i32 %18 to i64
  %20 = load i32, ptr %0, align 8
  %21 = and i32 %20, 7
  %22 = tail call noundef ptr @_ZN2cv14getConvertFuncEii(i32 noundef %21, i32 noundef %1)
  %.not = icmp eq ptr %22, null
  br i1 %.not, label %23, label %30

23:                                               ; preds = %4
  call void @_ZNSaIcEC1Ev(ptr noundef nonnull align 1 dereferenceable(1) %6) #17
  invoke void @_ZNSt7__cxx1112basic_stringIcSt11char_traitsIcESaIcEEC1EPKcRKS3_(ptr noundef nonnull align 8 dereferenceable(32) %5, ptr noundef nonnull @.str.4, ptr noundef nonnull align 1 dereferenceable(1) %6)
          to label %24 unwind label %26

24:                                               ; preds = %23
  invoke void @_ZN2cv5errorEiRKNSt7__cxx1112basic_stringIcSt11char_traitsIcESaIcEEEPKcS9_i(i32 noundef -215, ptr noundef nonnull align 8 dereferenceable(32) %5, ptr noundef nonnull @__func__._ZN2cv22convertAndUnrollScalarERKNS_3MatEiPhm, ptr noundef nonnull @.str.1, i32 noundef 108) #18
          to label %25 unwind label %28

25:                                               ; preds = %24
  unreachable

26:                                               ; preds = %23
  %27 = landingpad { ptr, i32 }
          cleanup
  br label %57

28:                                               ; preds = %24
  %29 = landingpad { ptr, i32 }
          cleanup
  call void @_ZNSt7__cxx1112basic_stringIcSt11char_traitsIcESaIcEED1Ev(ptr noundef nonnull align 8 dereferenceable(32) %5) #17
  br label %57

30:                                               ; preds = %4
  %31 = getelementptr inbounds i8, ptr %0, i64 16
  %32 = load ptr, ptr %31, align 8
  %.not48 = icmp slt i32 %12, %10
  %.sroa.speculated = select i1 %.not48, i32 %13, i32 %10
  %.sroa.0.0.insert.ext = zext i32 %.sroa.speculated to i64
  %.sroa.0.0.insert.insert = or disjoint i64 %.sroa.0.0.insert.ext, 4294967296
  tail call void %22(ptr noundef %32, i64 noundef 1, ptr noundef null, i64 noundef 1, ptr noundef %2, i64 noundef 1, i64 %.sroa.0.0.insert.insert, ptr noundef null)
  br i1 %.not48, label %.loopexit, label %33

33:                                               ; preds = %30
  %34 = icmp eq i32 %10, 1
  br i1 %34, label %42, label %35

35:                                               ; preds = %33
  call void @_ZNSaIcEC1Ev(ptr noundef nonnull align 1 dereferenceable(1) %8) #17
  invoke void @_ZNSt7__cxx1112basic_stringIcSt11char_traitsIcESaIcEEC1EPKcRKS3_(ptr noundef nonnull align 8 dereferenceable(32) %7, ptr noundef nonnull @.str.5, ptr noundef nonnull align 1 dereferenceable(1) %8)
          to label %36 unwind label %38

36:                                               ; preds = %35
  invoke void @_ZN2cv5errorEiRKNSt7__cxx1112basic_stringIcSt11char_traitsIcESaIcEEEPKcS9_i(i32 noundef -215, ptr noundef nonnull align 8 dereferenceable(32) %7, ptr noundef nonnull @__func__._ZN2cv22convertAndUnrollScalarERKNS_3MatEiPhm, ptr noundef nonnull @.str.1, i32 noundef 113) #18
          to label %37 unwind label %40

37:                                               ; preds = %36
  unreachable

38:                                               ; preds = %35
  %39 = landingpad { ptr, i32 }
          cleanup
  br label %57

40:                                               ; preds = %36
  %41 = landingpad { ptr, i32 }
          cleanup
  call void @_ZNSt7__cxx1112basic_stringIcSt11char_traitsIcESaIcEED1Ev(ptr noundef nonnull align 8 dereferenceable(32) %7) #17
  br label %57

42:                                               ; preds = %33
  %43 = zext nneg i32 %17 to i64
  %44 = icmp ult i32 %17, %18
  br i1 %44, label %.lr.ph, label %.loopexit

.lr.ph:                                           ; preds = %42, %.lr.ph
  %.03149 = phi i64 [ %49, %.lr.ph ], [ %43, %42 ]
  %45 = sub nuw nsw i64 %.03149, %43
  %46 = getelementptr inbounds i8, ptr %2, i64 %45
  %47 = load i8, ptr %46, align 1
  %48 = getelementptr inbounds i8, ptr %2, i64 %.03149
  store i8 %47, ptr %48, align 1
  %49 = add nuw nsw i64 %.03149, 1
  %exitcond.not = icmp eq i64 %49, %19
  br i1 %exitcond.not, label %.loopexit, label %.lr.ph, !llvm.loop !21

.loopexit:                                        ; preds = %.lr.ph, %42, %30
  %50 = mul i64 %19, %3
  %51 = icmp ugt i64 %50, %19
  br i1 %51, label %.lr.ph51, label %._crit_edge

.lr.ph51:                                         ; preds = %.loopexit, %.lr.ph51
  %.050 = phi i64 [ %56, %.lr.ph51 ], [ %19, %.loopexit ]
  %52 = sub nuw i64 %.050, %19
  %53 = getelementptr inbounds i8, ptr %2, i64 %52
  %54 = load i8, ptr %53, align 1
  %55 = getelementptr inbounds i8, ptr %2, i64 %.050
  store i8 %54, ptr %55, align 1
  %56 = add nuw i64 %.050, 1
  %exitcond52.not = icmp eq i64 %56, %50
  br i1 %exitcond52.not, label %._crit_edge, label %.lr.ph51, !llvm.loop !22

._crit_edge:                                      ; preds = %.lr.ph51, %.loopexit
  ret void

57:                                               ; preds = %38, %40, %26, %28
  %.sink = phi ptr [ %6, %28 ], [ %6, %26 ], [ %8, %40 ], [ %8, %38 ]
  %.pn39.pn = phi { ptr, i32 } [ %29, %28 ], [ %27, %26 ], [ %41, %40 ], [ %39, %38 ]
  call void @_ZNSaIcED1Ev(ptr noundef nonnull align 1 dereferenceable(1) %.sink) #17
  resume { ptr, i32 } %.pn39.pn
}